	.file	"pi_spmd_for.cpp"
	.text
.Ltext0:
	.section	.text.unlikely,"ax",@progbits
.LCOLDB0:
	.text
.LHOTB0:
	.p2align 4,,15
	.section	.text.unlikely
.Ltext_cold0:
	.text
	.type	main._omp_fn.0, @function
main._omp_fn.0:
.LFB512:
	.file 1 "pi_spmd_for.cpp"
	.loc 1 11 0
	.cfi_startproc
.LVL0:
	pushq	%rbp
	.cfi_def_cfa_offset 16
	.cfi_offset 6, -16
	pushq	%rbx
	.cfi_def_cfa_offset 24
	.cfi_offset 3, -24
	movq	%rdi, %rbx
	subq	$8, %rsp
	.cfi_def_cfa_offset 32
	call	omp_get_num_threads
.LVL1:
	movl	%eax, %ebp
	call	omp_get_thread_num
.LVL2:
	movl	%eax, %ecx
	movl	$1000, %eax
	cltd
	idivl	%ebp
	cmpl	%edx, %ecx
	jge	.L6
	addl	$1, %eax
	.loc 1 11 0
	xorl	%edx, %edx
.L6:
	imull	%eax, %ecx
	addl	%edx, %ecx
	addl	%ecx, %eax
	cmpl	%eax, %ecx
	jge	.L1
	.p2align 4,,10
	.p2align 3
.L7:
.LVL3:
.LBB2:
.LBB3:
	.loc 1 14 0
	movq	(%rbx), %rsi
	lock addl	%ecx, (%rsi)
	addl	$1, %ecx
.LVL4:
	cmpl	%eax, %ecx
	jne	.L7
.LVL5:
.L1:
.LBE3:
.LBE2:
	.loc 1 11 0
	addq	$8, %rsp
	.cfi_def_cfa_offset 24
	popq	%rbx
	.cfi_def_cfa_offset 16
.LVL6:
	popq	%rbp
	.cfi_def_cfa_offset 8
	ret
	.cfi_endproc
.LFE512:
	.size	main._omp_fn.0, .-main._omp_fn.0
	.section	.text.unlikely
.LCOLDE0:
	.text
.LHOTE0:
	.section	.rodata.str1.1,"aMS",@progbits,1
.LC1:
	.string	"counter = %d\n"
	.section	.text.unlikely
.LCOLDB2:
	.section	.text.startup,"ax",@progbits
.LHOTB2:
	.p2align 4,,15
	.globl	main
	.type	main, @function
main:
.LFB511:
	.loc 1 8 0
	.cfi_startproc
.LVL7:
	subq	$40, %rsp
	.cfi_def_cfa_offset 48
	xorl	%ecx, %ecx
	xorl	%edx, %edx
.LBB4:
.LBB5:
	.loc 1 11 0
	leaq	12(%rsp), %rax
	leaq	16(%rsp), %rsi
.LVL8:
	movl	$main._omp_fn.0, %edi
.LVL9:
.LBE5:
	.loc 1 9 0
	movl	$0, 12(%rsp)
.LBB6:
	.loc 1 11 0
	movq	%rax, 16(%rsp)
	call	GOMP_parallel
.LVL10:
.LBE6:
	.loc 1 16 0
	movl	12(%rsp), %esi
	movl	$.LC1, %edi
	xorl	%eax, %eax
	call	printf
.LVL11:
.LBE4:
	.loc 1 17 0
	xorl	%eax, %eax
	addq	$40, %rsp
	.cfi_def_cfa_offset 8
	ret
	.cfi_endproc
.LFE511:
	.size	main, .-main
	.section	.text.unlikely
.LCOLDE2:
	.section	.text.startup
.LHOTE2:
	.text
.Letext0:
	.section	.text.unlikely
.Letext_cold0:
	.file 2 "/usr/lib/gcc/x86_64-redhat-linux/4.9.2/include/stddef.h"
	.file 3 "/usr/include/bits/types.h"
	.file 4 "/usr/include/stdio.h"
	.file 5 "/usr/include/libio.h"
	.file 6 "/usr/include/wchar.h"
	.file 7 "/usr/include/_G_config.h"
	.file 8 "/usr/include/c++/4.9.2/cstdio"
	.file 9 "/usr/include/c++/4.9.2/cstdlib"
	.file 10 "/usr/include/c++/4.9.2/cmath"
	.file 11 "/usr/include/c++/4.9.2/type_traits"
	.file 12 "/usr/include/c++/4.9.2/cstdint"
	.file 13 "/usr/include/c++/4.9.2/ctime"
	.file 14 "/usr/include/c++/4.9.2/ratio"
	.file 15 "/usr/include/bits/stdio.h"
	.file 16 "/usr/include/stdlib.h"
	.file 17 "/usr/include/time.h"
	.file 18 "/usr/include/sys/types.h"
	.file 19 "/usr/include/bits/stdlib-float.h"
	.file 20 "/usr/include/bits/stdlib-bsearch.h"
	.file 21 "/usr/include/c++/4.9.2/chrono"
	.file 22 "/usr/include/bits/mathdef.h"
	.file 23 "/usr/include/stdint.h"
	.file 24 "<built-in>"
	.section	.note.GNU-stack,"",@progbits
